target datalayout = "e-m:e-p270:32:32-p271:32:32-p272:64:64-i64:64-i128:128-f80:128-n8:16:32:64-S128"
target triple = "x86_64-pc-linux-gnu"

; Function Attrs: mustprogress uwtable
define ptr @uhash_openSize_77(ptr noundef %0, ptr noundef %1, ptr noundef %2, i32 noundef %3, ptr noundef %4) #0 {
  %6 = alloca ptr, align 8
  %7 = alloca ptr, align 8
  %8 = alloca ptr, align 8
  %9 = alloca i32, align 4
  %10 = alloca ptr, align 8
  %11 = alloca i32, align 4
  store ptr %0, ptr %6, align 8, !tbaa !3
  store ptr %1, ptr %7, align 8, !tbaa !3
  store ptr %2, ptr %8, align 8, !tbaa !3
  store i32 %3, ptr %9, align 4, !tbaa !7
  store ptr %4, ptr %10, align 8, !tbaa !3
  call void @llvm.lifetime.start.p0(i64 4, ptr %11) #9
  store i32 0, ptr %11, align 4, !tbaa !7
  br label %12

12:                                               ; preds = %24, %5
  %13 = load i32, ptr %11, align 4, !tbaa !7
  %14 = icmp slt i32 %13, 28
  br i1 %14, label %15, label %22

15:                                               ; preds = %12
  %16 = load i32, ptr %11, align 4, !tbaa !7
  %17 = sext i32 %16 to i64
  %18 = getelementptr inbounds [29 x i32], ptr @_ZL6PRIMES, i64 0, i64 %17
  %19 = load i32, ptr %18, align 4, !tbaa !7
  %20 = load i32, ptr %9, align 4, !tbaa !7
  %21 = icmp slt i32 %19, %20
  br label %22

22:                                               ; preds = %15, %12
  %23 = phi i1 [ false, %12 ], [ %21, %15 ]
  br i1 %23, label %24, label %27

24:                                               ; preds = %22
  %25 = load i32, ptr %11, align 4, !tbaa !7
  %26 = add nsw i32 %25, 1
  store i32 %26, ptr %11, align 4, !tbaa !7
  br label %12, !llvm.loop !17

27:                                               ; preds = %22
  %28 = load ptr, ptr %6, align 8, !tbaa !3
  %29 = load ptr, ptr %7, align 8, !tbaa !3
  %30 = load ptr, ptr %8, align 8, !tbaa !3
  %31 = load i32, ptr %11, align 4, !tbaa !7
  %32 = load ptr, ptr %10, align 8, !tbaa !3
  %33 = call noundef ptr @_ZL13_uhash_createPFi8UElementEPFaS_S_ES3_iP10UErrorCode(ptr noundef %28, ptr noundef %29, ptr noundef %30, i32 noundef %31, ptr noundef %32)
  call void @llvm.lifetime.end.p0(i64 4, ptr %11) #9
  ret ptr %33
}