; Function Attrs: mustprogress uwtable
define noundef ptr @uhash_openSize_77(ptr noundef %0, ptr noundef %1, ptr noundef %2, i32 noundef %3, ptr noundef captures(none) %4) local_unnamed_addr #0 {
  br label %6

6:                                                ; preds = %5, %10
  %indvars.iv = phi i64 [ 0, %5 ], [ %indvars.iv.next, %10 ]
  %7 = getelementptr inbounds nuw [29 x i32], ptr @_ZL6PRIMES, i64 0, i64 %indvars.iv
  %8 = load i32, ptr %7, align 4, !tbaa !19
  %9 = icmp slt i32 %8, %3
  br i1 %9, label %10, label %.critedge.split.loop.exit10

10:                                               ; preds = %6
  %indvars.iv.next = add nuw nsw i64 %indvars.iv, 1
  %exitcond.not = icmp eq i64 %indvars.iv.next, 28
  br i1 %exitcond.not, label %.critedge, label %6, !llvm.loop !29

.critedge.split.loop.exit10:                      ; preds = %6
  %11 = trunc nuw nsw i64 %indvars.iv to i32
  br label %.critedge

.critedge:                                        ; preds = %10, %.critedge.split.loop.exit10
  %.0.lcssa = phi i32 [ %11, %.critedge.split.loop.exit10 ], [ 28, %10 ]
  %12 = tail call fastcc noundef ptr @_ZL13_uhash_createPFi8UElementEPFaS_S_ES3_iP10UErrorCode(ptr noundef %0, ptr noundef %1, ptr noundef %2, i32 noundef %.0.lcssa, ptr noundef %4)
  ret ptr %12
}